; Function Attrs: mustprogress nofree norecurse nosync nounwind willreturn memory(argmem: read) uwtable
define noundef range(i64 0, 4294967296) i64 @_ZNK9grpc_core6chttp220TransportFlowControl13target_windowEv(ptr noundef nonnull readonly align 8 captures(none) dereferenceable(144) %0) local_unnamed_addr #8 align 2 {
  %2 = getelementptr inbounds nuw i8, ptr %0, i64 8
  %3 = load i64, ptr %2, align 8, !tbaa !58
  %4 = getelementptr inbounds nuw i8, ptr %0, i64 104
  %5 = load i64, ptr %4, align 8, !tbaa !67
  %.sroa.speculated = tail call i64 @llvm.smax.i64(i64 %5, i64 1)
  %6 = add nsw i64 %.sroa.speculated, %3
  %.sroa.speculated4 = tail call i64 @llvm.smin.i64(i64 %6, i64 2147483647)
  %7 = and i64 %.sroa.speculated4, 4294967295
  ret i64 %7
}